; Function Attrs: nounwind uwtable
define ptr @cli_bcapi_buffer_pipe_write_get(ptr nocapture noundef readonly %0, i32 noundef %1, i32 noundef %2) local_unnamed_addr #1 {
  %4 = getelementptr inbounds i8, ptr %0, i64 1224
  %5 = load ptr, ptr %4, align 8
  %6 = icmp eq ptr %5, null
  %7 = icmp slt i32 %1, 0
  %or.cond.i = or i1 %7, %6
  br i1 %or.cond.i, label %get_buffer.exit.thread, label %8

8:                                                ; preds = %3
  %9 = getelementptr inbounds i8, ptr %0, i64 1232
  %10 = load i32, ptr %9, align 8
  %.not.i = icmp ugt i32 %10, %1
  br i1 %.not.i, label %get_buffer.exit.i, label %get_buffer.exit.thread

get_buffer.exit.thread:                           ; preds = %3, %8
  tail call void (ptr, ...) @cli_dbgmsg(ptr noundef nonnull @.str.135, i32 noundef %1) #29
  br label %cli_bcapi_buffer_pipe_write_avail.exit.thread

get_buffer.exit.i:                                ; preds = %8
  %11 = zext nneg i32 %1 to i64
  %12 = getelementptr inbounds %struct.bc_buffer, ptr %5, i64 %11
  %13 = load ptr, ptr %12, align 8
  %.not11.i = icmp eq ptr %13, null
  br i1 %.not11.i, label %cli_bcapi_buffer_pipe_write_avail.exit.thread, label %cli_bcapi_buffer_pipe_write_avail.exit

cli_bcapi_buffer_pipe_write_avail.exit:           ; preds = %get_buffer.exit.i
  %14 = getelementptr inbounds i8, ptr %12, i64 12
  %15 = load i32, ptr %14, align 4
  %16 = getelementptr inbounds i8, ptr %12, i64 8
  %17 = load i32, ptr %16, align 8
  %spec.select.i = tail call i32 @llvm.usub.sat.i32(i32 %17, i32 %15)
  %18 = add i32 %2, -1
  %or.cond = icmp ult i32 %18, %spec.select.i
  br i1 %or.cond, label %19, label %cli_bcapi_buffer_pipe_write_avail.exit.thread

19:                                               ; preds = %cli_bcapi_buffer_pipe_write_avail.exit
  %20 = zext i32 %15 to i64
  %21 = getelementptr inbounds i8, ptr %13, i64 %20
  br label %cli_bcapi_buffer_pipe_write_avail.exit.thread

cli_bcapi_buffer_pipe_write_avail.exit.thread:    ; preds = %get_buffer.exit.i, %get_buffer.exit.thread, %cli_bcapi_buffer_pipe_write_avail.exit, %19
  %.0 = phi ptr [ %21, %19 ], [ null, %cli_bcapi_buffer_pipe_write_avail.exit ], [ null, %get_buffer.exit.thread ], [ null, %get_buffer.exit.i ]
  ret ptr %.0
}